; Function Attrs: nounwind uwtable
define noundef i32 @lv_circle_buf_peek_at(ptr noundef %0, i32 noundef %1, ptr noundef %2) local_unnamed_addr #0 {
  %.not = icmp eq ptr %0, null
  br i1 %.not, label %.preheader, label %4

.preheader:                                       ; preds = %3, %.preheader
  br label %.preheader

4:                                                ; preds = %3
  %.not10 = icmp eq ptr %2, null
  br i1 %.not10, label %.preheader13, label %lv_circle_buf_capacity.exit

.preheader13:                                     ; preds = %4, %.preheader13
  br label %.preheader13

lv_circle_buf_capacity.exit:                      ; preds = %4
  %5 = getelementptr inbounds nuw i8, ptr %0, i64 28
  %6 = load i32, ptr %5, align 4, !tbaa !12
  %7 = getelementptr inbounds nuw i8, ptr %0, i64 24
  %8 = load i32, ptr %7, align 8, !tbaa !3
  %9 = sub i32 %6, %8
  %10 = urem i32 %1, %9
  %11 = add i32 %10, %8
  %12 = tail call i32 @lv_array_capacity(ptr noundef nonnull %0) #6
  %13 = urem i32 %11, %12
  %14 = tail call ptr @lv_array_at(ptr noundef nonnull %0, i32 noundef %13) #6
  %15 = getelementptr inbounds nuw i8, ptr %0, i64 16
  %16 = load i32, ptr %15, align 8, !tbaa !20
  %17 = zext i32 %16 to i64
  %18 = tail call ptr @lv_memcpy(ptr noundef nonnull %2, ptr noundef %14, i64 noundef %17) #6
  ret i32 1
}